; Function Attrs: mustprogress nofree norecurse nosync nounwind willreturn memory(read, inaccessiblemem: none) uwtable
define hidden noundef i32 @_ZN8datatype4util32get_datatype_num_parameter_sortsEP4sort(ptr noundef nonnull readnone align 8 captures(none) dereferenceable(24) %0, ptr noundef readonly captures(none) %1) local_unnamed_addr #6 align 2 {
  %3 = getelementptr inbounds nuw i8, ptr %1, i64 24
  %4 = load ptr, ptr %3, align 8, !tbaa !65
  %5 = icmp eq ptr %4, null
  br i1 %5, label %_ZNK4decl18get_num_parametersEv.exit, label %6

6:                                                ; preds = %2
  %7 = getelementptr inbounds nuw i8, ptr %4, i64 8
  %8 = load ptr, ptr %7, align 8, !tbaa !56
  %9 = icmp eq ptr %8, null
  br i1 %9, label %_ZNK4decl18get_num_parametersEv.exit, label %10

10:                                               ; preds = %6
  %11 = getelementptr inbounds i8, ptr %8, i64 -4
  %12 = load i32, ptr %11, align 4, !tbaa !25
  %13 = add i32 %12, -1
  br label %_ZNK4decl18get_num_parametersEv.exit

_ZNK4decl18get_num_parametersEv.exit:             ; preds = %2, %6, %10
  %14 = phi i32 [ -1, %2 ], [ %13, %10 ], [ -1, %6 ]
  ret i32 %14
}